target datalayout = "e-m:e-p270:32:32-p271:32:32-p272:64:64-i64:64-i128:128-f80:128-n8:16:32:64-S128"
target triple = "x86_64-pc-linux-gnu"

%struct.Hop_Obj_t_ = type { %union.anon, %union.anon.0, ptr, ptr, i32, i32 }
%union.anon = type { ptr }
%union.anon.0 = type { ptr }

; Function Attrs: inlinehint nounwind uwtable
define internal i32 @Hop_ObjLevel(ptr noundef %0) #3 {
  %2 = alloca ptr, align 8
  store ptr %0, ptr %2, align 8, !tbaa !19
  %3 = load ptr, ptr %2, align 8, !tbaa !19
  %4 = getelementptr inbounds nuw %struct.Hop_Obj_t_, ptr %3, i32 0, i32 4
  %5 = load i32, ptr %4, align 8
  %6 = lshr i32 %5, 6
  ret i32 %6
}

; Function Attrs: inlinehint nounwind uwtable
define internal ptr @Hop_Regular(ptr noundef %0) #3 {
  %2 = alloca ptr, align 8
  store ptr %0, ptr %2, align 8, !tbaa !19
  %3 = load ptr, ptr %2, align 8, !tbaa !19
  %4 = ptrtoint ptr %3 to i64
  %5 = and i64 %4, -2
  %6 = inttoptr i64 %5 to ptr
  ret ptr %6
}

; Function Attrs: nounwind uwtable
define i32 @Hop_NodeCompareLevelsDecrease(ptr noundef %0, ptr noundef %1) #0 {
  %3 = alloca i32, align 4
  %4 = alloca ptr, align 8
  %5 = alloca ptr, align 8
  %6 = alloca i32, align 4
  %7 = alloca i32, align 4
  store ptr %0, ptr %4, align 8, !tbaa !43
  store ptr %1, ptr %5, align 8, !tbaa !43
  call void @llvm.lifetime.start.p0(i64 4, ptr %6) #7
  %8 = load ptr, ptr %4, align 8, !tbaa !43
  %9 = load ptr, ptr %8, align 8, !tbaa !19
  %10 = call ptr @Hop_Regular(ptr noundef %9)
  %11 = call i32 @Hop_ObjLevel(ptr noundef %10)
  %12 = load ptr, ptr %5, align 8, !tbaa !43
  %13 = load ptr, ptr %12, align 8, !tbaa !19
  %14 = call ptr @Hop_Regular(ptr noundef %13)
  %15 = call i32 @Hop_ObjLevel(ptr noundef %14)
  %16 = sub nsw i32 %11, %15
  store i32 %16, ptr %6, align 4, !tbaa !8
  %17 = load i32, ptr %6, align 4, !tbaa !8
  %18 = icmp sgt i32 %17, 0
  br i1 %18, label %19, label %20

19:                                               ; preds = %2
  store i32 -1, ptr %3, align 4
  store i32 1, ptr %7, align 4
  br label %44

20:                                               ; preds = %2
  %21 = load i32, ptr %6, align 4, !tbaa !8
  %22 = icmp slt i32 %21, 0
  br i1 %22, label %23, label %24

23:                                               ; preds = %20
  store i32 1, ptr %3, align 4
  store i32 1, ptr %7, align 4
  br label %44

24:                                               ; preds = %20
  %25 = load ptr, ptr %4, align 8, !tbaa !43
  %26 = load ptr, ptr %25, align 8, !tbaa !19
  %27 = call ptr @Hop_Regular(ptr noundef %26)
  %28 = getelementptr inbounds nuw %struct.Hop_Obj_t_, ptr %27, i32 0, i32 5
  %29 = load i32, ptr %28, align 4, !tbaa !44
  %30 = load ptr, ptr %5, align 8, !tbaa !43
  %31 = load ptr, ptr %30, align 8, !tbaa !19
  %32 = call ptr @Hop_Regular(ptr noundef %31)
  %33 = getelementptr inbounds nuw %struct.Hop_Obj_t_, ptr %32, i32 0, i32 5
  %34 = load i32, ptr %33, align 4, !tbaa !44
  %35 = sub nsw i32 %29, %34
  store i32 %35, ptr %6, align 4, !tbaa !8
  %36 = load i32, ptr %6, align 4, !tbaa !8
  %37 = icmp sgt i32 %36, 0
  br i1 %37, label %38, label %39

38:                                               ; preds = %24
  store i32 -1, ptr %3, align 4
  store i32 1, ptr %7, align 4
  br label %44

39:                                               ; preds = %24
  %40 = load i32, ptr %6, align 4, !tbaa !8
  %41 = icmp slt i32 %40, 0
  br i1 %41, label %42, label %43

42:                                               ; preds = %39
  store i32 1, ptr %3, align 4
  store i32 1, ptr %7, align 4
  br label %44

43:                                               ; preds = %39
  store i32 0, ptr %3, align 4
  store i32 1, ptr %7, align 4
  br label %44

44:                                               ; preds = %43, %42, %38, %23, %19
  call void @llvm.lifetime.end.p0(i64 4, ptr %6) #7
  %45 = load i32, ptr %3, align 4
  ret i32 %45
}