; Function Attrs: mustprogress nofree norecurse nosync nounwind willreturn memory(read, inaccessiblemem: none) uwtable
define range(i32 -1, 2) i32 @Hop_NodeCompareLevelsDecrease(ptr noundef readonly captures(none) %0, ptr noundef readonly captures(none) %1) #2 {
  %3 = load ptr, ptr %0, align 8, !tbaa !38
  %4 = ptrtoint ptr %3 to i64
  %5 = and i64 %4, -2
  %6 = inttoptr i64 %5 to ptr
  %7 = getelementptr i8, ptr %6, i64 32
  %.val = load i32, ptr %7, align 8
  %8 = lshr i32 %.val, 6
  %9 = load ptr, ptr %1, align 8, !tbaa !38
  %10 = ptrtoint ptr %9 to i64
  %11 = and i64 %10, -2
  %12 = inttoptr i64 %11 to ptr
  %13 = getelementptr i8, ptr %12, i64 32
  %.val10 = load i32, ptr %13, align 8
  %14 = lshr i32 %.val10, 6
  %15 = sub nsw i32 %8, %14
  %16 = icmp sgt i32 %15, 0
  br i1 %16, label %26, label %17

17:                                               ; preds = %2
  %18 = icmp slt i32 %15, 0
  br i1 %18, label %26, label %19

19:                                               ; preds = %17
  %20 = getelementptr inbounds nuw i8, ptr %6, i64 36
  %21 = load i32, ptr %20, align 4, !tbaa !39
  %22 = getelementptr inbounds nuw i8, ptr %12, i64 36
  %23 = load i32, ptr %22, align 4, !tbaa !39
  %24 = icmp sgt i32 %21, %23
  br i1 %24, label %26, label %25

25:                                               ; preds = %19
  %.not = icmp ne i32 %21, %23
  %. = zext i1 %.not to i32
  br label %26

26:                                               ; preds = %25, %19, %17, %2
  %.0 = phi i32 [ -1, %2 ], [ 1, %17 ], [ -1, %19 ], [ %., %25 ]
  ret i32 %.0
}